; Function Attrs: mustprogress nofree norecurse nosync nounwind willreturn memory(read, inaccessiblemem: none) uwtable
define hidden noundef range(i32 0, 78) i32 @_ZNK2cv10ExifReader9getFormatEv(ptr noundef nonnull readonly align 8 captures(none) dereferenceable(76) %0) local_unnamed_addr #9 align 2 {
  %2 = getelementptr inbounds nuw i8, ptr %0, i64 8
  %3 = load ptr, ptr %2, align 8, !tbaa !54
  %4 = load ptr, ptr %0, align 8, !tbaa !46
  %5 = icmp eq ptr %3, %4
  br i1 %5, label %18, label %6

6:                                                ; preds = %1
  %7 = ptrtoint ptr %4 to i64
  %8 = ptrtoint ptr %3 to i64
  %9 = sub i64 %8, %7
  %10 = icmp ugt i64 %9, 1
  %11 = load i8, ptr %4, align 1, !tbaa !12
  br i1 %10, label %12, label %thread-pre-split

12:                                               ; preds = %6
  %13 = getelementptr inbounds nuw i8, ptr %4, i64 1
  %14 = load i8, ptr %13, align 1, !tbaa !12
  %.not = icmp eq i8 %11, %14
  br i1 %.not, label %thread-pre-split, label %18

thread-pre-split:                                 ; preds = %6, %12
  %15 = icmp eq i8 %11, 73
  br i1 %15, label %18, label %16

16:                                               ; preds = %thread-pre-split
  %17 = icmp eq i8 %11, 77
  %. = select i1 %17, i32 77, i32 0
  br label %18

18:                                               ; preds = %16, %thread-pre-split, %12, %1
  %.0 = phi i32 [ 0, %1 ], [ 0, %12 ], [ 73, %thread-pre-split ], [ %., %16 ]
  ret i32 %.0
}